; Function Attrs: nofree nosync nounwind memory(readwrite, inaccessiblemem: none) uwtable
define void @Abc_NtkMarkCone_rec(ptr noundef captures(none) %0, i32 noundef %1) local_unnamed_addr #2 {
  %3 = getelementptr inbounds nuw i8, ptr %0, i64 20
  %4 = load i32, ptr %3, align 4
  %5 = and i32 %4, 16
  %.not = icmp eq i32 %5, 0
  br i1 %.not, label %6, label %.critedge

6:                                                ; preds = %2
  %7 = or disjoint i32 %4, 16
  store i32 %7, ptr %3, align 4
  %.not20 = icmp eq i32 %1, 0
  br i1 %.not20, label %.preheader, label %.preheader26

.preheader26:                                     ; preds = %6
  %8 = getelementptr i8, ptr %0, i64 44
  %.val28 = load i32, ptr %8, align 4, !tbaa !67
  %9 = icmp sgt i32 %.val28, 0
  br i1 %9, label %.lr.ph, label %.critedge

.lr.ph:                                           ; preds = %.preheader26
  %10 = getelementptr i8, ptr %0, i64 48
  br label %14

.preheader:                                       ; preds = %6
  %11 = getelementptr i8, ptr %0, i64 28
  %.val2330 = load i32, ptr %11, align 4, !tbaa !46
  %12 = icmp sgt i32 %.val2330, 0
  br i1 %12, label %.lr.ph32, label %.critedge

.lr.ph32:                                         ; preds = %.preheader
  %13 = getelementptr i8, ptr %0, i64 32
  br label %24

14:                                               ; preds = %.lr.ph, %14
  %indvars.iv = phi i64 [ 0, %.lr.ph ], [ %indvars.iv.next, %14 ]
  %.val21 = load ptr, ptr %0, align 8, !tbaa !38
  %.val22 = load ptr, ptr %10, align 8, !tbaa !51
  %15 = getelementptr i8, ptr %.val21, i64 32
  %.val21.val = load ptr, ptr %15, align 8, !tbaa !42
  %16 = getelementptr i8, ptr %.val21.val, i64 8
  %.val21.val.val = load ptr, ptr %16, align 8, !tbaa !35
  %17 = getelementptr inbounds nuw i32, ptr %.val22, i64 %indvars.iv
  %18 = load i32, ptr %17, align 4, !tbaa !3
  %19 = sext i32 %18 to i64
  %20 = getelementptr inbounds ptr, ptr %.val21.val.val, i64 %19
  %21 = load ptr, ptr %20, align 8, !tbaa !36
  tail call void @Abc_NtkMarkCone_rec(ptr noundef %21, i32 noundef %1)
  %indvars.iv.next = add nuw nsw i64 %indvars.iv, 1
  %.val = load i32, ptr %8, align 4, !tbaa !67
  %22 = sext i32 %.val to i64
  %23 = icmp slt i64 %indvars.iv.next, %22
  br i1 %23, label %14, label %.critedge, !llvm.loop !68

24:                                               ; preds = %.lr.ph32, %24
  %indvars.iv35 = phi i64 [ 0, %.lr.ph32 ], [ %indvars.iv.next36, %24 ]
  %.val24 = load ptr, ptr %0, align 8, !tbaa !38
  %.val25 = load ptr, ptr %13, align 8, !tbaa !41
  %25 = getelementptr i8, ptr %.val24, i64 32
  %.val24.val = load ptr, ptr %25, align 8, !tbaa !42
  %26 = getelementptr i8, ptr %.val24.val, i64 8
  %.val24.val.val = load ptr, ptr %26, align 8, !tbaa !35
  %27 = getelementptr inbounds nuw i32, ptr %.val25, i64 %indvars.iv35
  %28 = load i32, ptr %27, align 4, !tbaa !3
  %29 = sext i32 %28 to i64
  %30 = getelementptr inbounds ptr, ptr %.val24.val.val, i64 %29
  %31 = load ptr, ptr %30, align 8, !tbaa !36
  tail call void @Abc_NtkMarkCone_rec(ptr noundef %31, i32 noundef 0)
  %indvars.iv.next36 = add nuw nsw i64 %indvars.iv35, 1
  %.val23 = load i32, ptr %11, align 4, !tbaa !46
  %32 = sext i32 %.val23 to i64
  %33 = icmp slt i64 %indvars.iv.next36, %32
  br i1 %33, label %24, label %.critedge, !llvm.loop !69

.critedge:                                        ; preds = %14, %24, %.preheader26, %.preheader, %2
  ret void
}